target datalayout = "e-m:e-p270:32:32-p271:32:32-p272:64:64-i64:64-i128:128-f80:128-n8:16:32:64-S128"
target triple = "x86_64-pc-linux-gnu"

%struct.AVFilterContext = type { ptr, ptr, ptr, ptr, ptr, i32, ptr, ptr, i32, ptr, ptr, i32, i32, ptr, ptr, ptr, ptr, i32, ptr, i32, i32 }
%struct.AddROIContext = type { ptr, [4 x ptr], [4 x ptr], [4 x i32], %struct.AVRational, i32 }
%struct.AVRational = type { i32, i32 }
%struct.AVRegionOfInterest = type { i32, i32, i32, i32, i32, %struct.AVRational }
%struct.AVFilterLink = type { ptr, ptr, ptr, ptr, i32, i32, i32, i32, %struct.AVRational, i32, i32, i32, %struct.AVChannelLayout, %struct.AVRational, ptr, i32, %struct.AVFilterFormatsConfig, %struct.AVFilterFormatsConfig }
%struct.AVChannelLayout = type { i32, i32, %union.anon.1, ptr }
%union.anon.1 = type { i64 }
%struct.AVFilterFormatsConfig = type { ptr, ptr, ptr, ptr, ptr }
%struct.AVFrameSideData = type { i32, ptr, i64, ptr, ptr }
%struct.AVBufferRef = type { ptr, ptr, i64 }

@.str.3 = private unnamed_addr constant [30 x i8] c"Assertion %s failed at %s:%d\0A\00", align 1
@.str.4 = private unnamed_addr constant [45 x i8] c"old_roi_size && sd->size % old_roi_size == 0\00", align 1
@.str.5 = private unnamed_addr constant [24 x i8] c"libavfilter/vf_addroi.c\00", align 1

; Function Attrs: nounwind uwtable
define internal i32 @addroi_filter_frame(ptr noundef %0, ptr noundef %1) #1 {
  %3 = alloca i32, align 4
  %4 = alloca ptr, align 8
  %5 = alloca ptr, align 8
  %6 = alloca ptr, align 8
  %7 = alloca ptr, align 8
  %8 = alloca ptr, align 8
  %9 = alloca ptr, align 8
  %10 = alloca ptr, align 8
  %11 = alloca i32, align 4
  %12 = alloca ptr, align 8
  %13 = alloca i32, align 4
  %14 = alloca ptr, align 8
  %15 = alloca i32, align 4
  %16 = alloca i32, align 4
  %17 = alloca %struct.AVRegionOfInterest, align 4
  %18 = alloca %struct.AVRegionOfInterest, align 4
  %19 = alloca i32, align 4
  %20 = alloca %struct.AVRegionOfInterest, align 4
  store ptr %0, ptr %4, align 8, !tbaa !32
  store ptr %1, ptr %5, align 8, !tbaa !34
  call void @llvm.lifetime.start.p0(i64 8, ptr %6) #6
  %21 = load ptr, ptr %4, align 8, !tbaa !32
  %22 = getelementptr inbounds nuw %struct.AVFilterLink, ptr %21, i32 0, i32 2
  %23 = load ptr, ptr %22, align 8, !tbaa !36
  store ptr %23, ptr %6, align 8, !tbaa !4
  call void @llvm.lifetime.start.p0(i64 8, ptr %7) #6
  %24 = load ptr, ptr %6, align 8, !tbaa !4
  %25 = getelementptr inbounds nuw %struct.AVFilterContext, ptr %24, i32 0, i32 7
  %26 = load ptr, ptr %25, align 8, !tbaa !44
  %27 = getelementptr inbounds ptr, ptr %26, i64 0
  %28 = load ptr, ptr %27, align 8, !tbaa !32
  store ptr %28, ptr %7, align 8, !tbaa !32
  call void @llvm.lifetime.start.p0(i64 8, ptr %8) #6
  %29 = load ptr, ptr %6, align 8, !tbaa !4
  %30 = getelementptr inbounds nuw %struct.AVFilterContext, ptr %29, i32 0, i32 9
  %31 = load ptr, ptr %30, align 8, !tbaa !9
  store ptr %31, ptr %8, align 8, !tbaa !22
  call void @llvm.lifetime.start.p0(i64 8, ptr %9) #6
  call void @llvm.lifetime.start.p0(i64 8, ptr %10) #6
  call void @llvm.lifetime.start.p0(i64 4, ptr %11) #6
  %32 = load ptr, ptr %8, align 8, !tbaa !22
  %33 = getelementptr inbounds nuw %struct.AddROIContext, ptr %32, i32 0, i32 5
  %34 = load i32, ptr %33, align 8, !tbaa !45
  %35 = icmp ne i32 %34, 0
  br i1 %35, label %36, label %38

36:                                               ; preds = %2
  %37 = load ptr, ptr %5, align 8, !tbaa !34
  call void @av_frame_remove_side_data(ptr noundef %37, i32 noundef 18)
  store ptr null, ptr %10, align 8, !tbaa !47
  br label %41

38:                                               ; preds = %2
  %39 = load ptr, ptr %5, align 8, !tbaa !34
  %40 = call ptr @av_frame_get_side_data(ptr noundef %39, i32 noundef 18)
  store ptr %40, ptr %10, align 8, !tbaa !47
  br label %41

41:                                               ; preds = %38, %36
  %42 = load ptr, ptr %10, align 8, !tbaa !47
  %43 = icmp ne ptr %42, null
  br i1 %43, label %44, label %177

44:                                               ; preds = %41
  call void @llvm.lifetime.start.p0(i64 8, ptr %12) #6
  call void @llvm.lifetime.start.p0(i64 4, ptr %13) #6
  call void @llvm.lifetime.start.p0(i64 8, ptr %14) #6
  call void @llvm.lifetime.start.p0(i64 4, ptr %15) #6
  call void @llvm.lifetime.start.p0(i64 4, ptr %16) #6
  %45 = load ptr, ptr %10, align 8, !tbaa !47
  %46 = getelementptr inbounds nuw %struct.AVFrameSideData, ptr %45, i32 0, i32 1
  %47 = load ptr, ptr %46, align 8, !tbaa !49
  store ptr %47, ptr %12, align 8, !tbaa !53
  %48 = load ptr, ptr %12, align 8, !tbaa !53
  %49 = getelementptr inbounds nuw %struct.AVRegionOfInterest, ptr %48, i32 0, i32 0
  %50 = load i32, ptr %49, align 4, !tbaa !55
  store i32 %50, ptr %13, align 4, !tbaa !24
  br label %51

51:                                               ; preds = %44
  %52 = load i32, ptr %13, align 4, !tbaa !24
  %53 = icmp ne i32 %52, 0
  br i1 %53, label %54, label %62

54:                                               ; preds = %51
  %55 = load ptr, ptr %10, align 8, !tbaa !47
  %56 = getelementptr inbounds nuw %struct.AVFrameSideData, ptr %55, i32 0, i32 2
  %57 = load i64, ptr %56, align 8, !tbaa !57
  %58 = load i32, ptr %13, align 4, !tbaa !24
  %59 = zext i32 %58 to i64
  %60 = urem i64 %57, %59
  %61 = icmp eq i64 %60, 0
  br i1 %61, label %63, label %62

62:                                               ; preds = %54, %51
  call void (ptr, i32, ptr, ...) @av_log(ptr noundef null, i32 noundef 0, ptr noundef @.str.3, ptr noundef @.str.4, ptr noundef @.str.5, i32 noundef 119)
  call void @abort() #7
  unreachable

63:                                               ; preds = %54
  br label %64

64:                                               ; preds = %63
  br label %65

65:                                               ; preds = %64
  %66 = load ptr, ptr %10, align 8, !tbaa !47
  %67 = getelementptr inbounds nuw %struct.AVFrameSideData, ptr %66, i32 0, i32 2
  %68 = load i64, ptr %67, align 8, !tbaa !57
  %69 = load i32, ptr %13, align 4, !tbaa !24
  %70 = zext i32 %69 to i64
  %71 = udiv i64 %68, %70
  %72 = add i64 %71, 1
  %73 = trunc i64 %72 to i32
  store i32 %73, ptr %15, align 4, !tbaa !24
  %74 = load i32, ptr %15, align 4, !tbaa !24
  %75 = sext i32 %74 to i64
  %76 = mul i64 28, %75
  %77 = call ptr @av_buffer_alloc(i64 noundef %76)
  store ptr %77, ptr %14, align 8, !tbaa !58
  %78 = load ptr, ptr %14, align 8, !tbaa !58
  %79 = icmp ne ptr %78, null
  br i1 %79, label %81, label %80

80:                                               ; preds = %65
  store i32 -12, ptr %11, align 4, !tbaa !24
  store i32 4, ptr %19, align 4
  br label %174

81:                                               ; preds = %65
  %82 = load ptr, ptr %14, align 8, !tbaa !58
  %83 = getelementptr inbounds nuw %struct.AVBufferRef, ptr %82, i32 0, i32 1
  %84 = load ptr, ptr %83, align 8, !tbaa !59
  store ptr %84, ptr %9, align 8, !tbaa !53
  store i32 0, ptr %16, align 4, !tbaa !24
  br label %85

85:                                               ; preds = %123, %81
  %86 = load i32, ptr %16, align 4, !tbaa !24
  %87 = load i32, ptr %15, align 4, !tbaa !24
  %88 = sub nsw i32 %87, 1
  %89 = icmp slt i32 %86, %88
  br i1 %89, label %90, label %126

90:                                               ; preds = %85
  %91 = load ptr, ptr %10, align 8, !tbaa !47
  %92 = getelementptr inbounds nuw %struct.AVFrameSideData, ptr %91, i32 0, i32 1
  %93 = load ptr, ptr %92, align 8, !tbaa !49
  %94 = load i32, ptr %13, align 4, !tbaa !24
  %95 = load i32, ptr %16, align 4, !tbaa !24
  %96 = mul i32 %94, %95
  %97 = zext i32 %96 to i64
  %98 = getelementptr inbounds nuw i8, ptr %93, i64 %97
  store ptr %98, ptr %12, align 8, !tbaa !53
  %99 = load ptr, ptr %9, align 8, !tbaa !53
  %100 = load i32, ptr %16, align 4, !tbaa !24
  %101 = sext i32 %100 to i64
  %102 = getelementptr inbounds %struct.AVRegionOfInterest, ptr %99, i64 %101
  %103 = getelementptr inbounds nuw %struct.AVRegionOfInterest, ptr %17, i32 0, i32 0
  store i32 28, ptr %103, align 4, !tbaa !55
  %104 = getelementptr inbounds nuw %struct.AVRegionOfInterest, ptr %17, i32 0, i32 1
  %105 = load ptr, ptr %12, align 8, !tbaa !53
  %106 = getelementptr inbounds nuw %struct.AVRegionOfInterest, ptr %105, i32 0, i32 1
  %107 = load i32, ptr %106, align 4, !tbaa !62
  store i32 %107, ptr %104, align 4, !tbaa !62
  %108 = getelementptr inbounds nuw %struct.AVRegionOfInterest, ptr %17, i32 0, i32 2
  %109 = load ptr, ptr %12, align 8, !tbaa !53
  %110 = getelementptr inbounds nuw %struct.AVRegionOfInterest, ptr %109, i32 0, i32 2
  %111 = load i32, ptr %110, align 4, !tbaa !63
  store i32 %111, ptr %108, align 4, !tbaa !63
  %112 = getelementptr inbounds nuw %struct.AVRegionOfInterest, ptr %17, i32 0, i32 3
  %113 = load ptr, ptr %12, align 8, !tbaa !53
  %114 = getelementptr inbounds nuw %struct.AVRegionOfInterest, ptr %113, i32 0, i32 3
  %115 = load i32, ptr %114, align 4, !tbaa !64
  store i32 %115, ptr %112, align 4, !tbaa !64
  %116 = getelementptr inbounds nuw %struct.AVRegionOfInterest, ptr %17, i32 0, i32 4
  %117 = load ptr, ptr %12, align 8, !tbaa !53
  %118 = getelementptr inbounds nuw %struct.AVRegionOfInterest, ptr %117, i32 0, i32 4
  %119 = load i32, ptr %118, align 4, !tbaa !65
  store i32 %119, ptr %116, align 4, !tbaa !65
  %120 = getelementptr inbounds nuw %struct.AVRegionOfInterest, ptr %17, i32 0, i32 5
  %121 = load ptr, ptr %12, align 8, !tbaa !53
  %122 = getelementptr inbounds nuw %struct.AVRegionOfInterest, ptr %121, i32 0, i32 5
  call void @llvm.memcpy.p0.p0.i64(ptr align 4 %120, ptr align 4 %122, i64 8, i1 false), !tbaa.struct !66
  call void @llvm.memcpy.p0.p0.i64(ptr align 4 %102, ptr align 4 %17, i64 28, i1 false), !tbaa.struct !67
  br label %123

123:                                              ; preds = %90
  %124 = load i32, ptr %16, align 4, !tbaa !24
  %125 = add nsw i32 %124, 1
  store i32 %125, ptr %16, align 4, !tbaa !24
  br label %85, !llvm.loop !68

126:                                              ; preds = %85
  %127 = load ptr, ptr %9, align 8, !tbaa !53
  %128 = load i32, ptr %15, align 4, !tbaa !24
  %129 = sub nsw i32 %128, 1
  %130 = sext i32 %129 to i64
  %131 = getelementptr inbounds %struct.AVRegionOfInterest, ptr %127, i64 %130
  %132 = getelementptr inbounds nuw %struct.AVRegionOfInterest, ptr %18, i32 0, i32 0
  store i32 28, ptr %132, align 4, !tbaa !55
  %133 = getelementptr inbounds nuw %struct.AVRegionOfInterest, ptr %18, i32 0, i32 1
  %134 = load ptr, ptr %8, align 8, !tbaa !22
  %135 = getelementptr inbounds nuw %struct.AddROIContext, ptr %134, i32 0, i32 3
  %136 = getelementptr inbounds [4 x i32], ptr %135, i64 0, i64 1
  %137 = load i32, ptr %136, align 4, !tbaa !24
  store i32 %137, ptr %133, align 4, !tbaa !62
  %138 = getelementptr inbounds nuw %struct.AVRegionOfInterest, ptr %18, i32 0, i32 2
  %139 = load ptr, ptr %8, align 8, !tbaa !22
  %140 = getelementptr inbounds nuw %struct.AddROIContext, ptr %139, i32 0, i32 3
  %141 = getelementptr inbounds [4 x i32], ptr %140, i64 0, i64 1
  %142 = load i32, ptr %141, align 4, !tbaa !24
  %143 = load ptr, ptr %8, align 8, !tbaa !22
  %144 = getelementptr inbounds nuw %struct.AddROIContext, ptr %143, i32 0, i32 3
  %145 = getelementptr inbounds [4 x i32], ptr %144, i64 0, i64 3
  %146 = load i32, ptr %145, align 4, !tbaa !24
  %147 = add nsw i32 %142, %146
  store i32 %147, ptr %138, align 4, !tbaa !63
  %148 = getelementptr inbounds nuw %struct.AVRegionOfInterest, ptr %18, i32 0, i32 3
  %149 = load ptr, ptr %8, align 8, !tbaa !22
  %150 = getelementptr inbounds nuw %struct.AddROIContext, ptr %149, i32 0, i32 3
  %151 = getelementptr inbounds [4 x i32], ptr %150, i64 0, i64 0
  %152 = load i32, ptr %151, align 8, !tbaa !24
  store i32 %152, ptr %148, align 4, !tbaa !64
  %153 = getelementptr inbounds nuw %struct.AVRegionOfInterest, ptr %18, i32 0, i32 4
  %154 = load ptr, ptr %8, align 8, !tbaa !22
  %155 = getelementptr inbounds nuw %struct.AddROIContext, ptr %154, i32 0, i32 3
  %156 = getelementptr inbounds [4 x i32], ptr %155, i64 0, i64 0
  %157 = load i32, ptr %156, align 8, !tbaa !24
  %158 = load ptr, ptr %8, align 8, !tbaa !22
  %159 = getelementptr inbounds nuw %struct.AddROIContext, ptr %158, i32 0, i32 3
  %160 = getelementptr inbounds [4 x i32], ptr %159, i64 0, i64 2
  %161 = load i32, ptr %160, align 8, !tbaa !24
  %162 = add nsw i32 %157, %161
  store i32 %162, ptr %153, align 4, !tbaa !65
  %163 = getelementptr inbounds nuw %struct.AVRegionOfInterest, ptr %18, i32 0, i32 5
  %164 = load ptr, ptr %8, align 8, !tbaa !22
  %165 = getelementptr inbounds nuw %struct.AddROIContext, ptr %164, i32 0, i32 4
  call void @llvm.memcpy.p0.p0.i64(ptr align 4 %163, ptr align 8 %165, i64 8, i1 false), !tbaa.struct !66
  call void @llvm.memcpy.p0.p0.i64(ptr align 4 %131, ptr align 4 %18, i64 28, i1 false), !tbaa.struct !67
  %166 = load ptr, ptr %5, align 8, !tbaa !34
  call void @av_frame_remove_side_data(ptr noundef %166, i32 noundef 18)
  %167 = load ptr, ptr %5, align 8, !tbaa !34
  %168 = load ptr, ptr %14, align 8, !tbaa !58
  %169 = call ptr @av_frame_new_side_data_from_buf(ptr noundef %167, i32 noundef 18, ptr noundef %168)
  store ptr %169, ptr %10, align 8, !tbaa !47
  %170 = load ptr, ptr %10, align 8, !tbaa !47
  %171 = icmp ne ptr %170, null
  br i1 %171, label %173, label %172

172:                                              ; preds = %126
  call void @av_buffer_unref(ptr noundef %14)
  store i32 -12, ptr %11, align 4, !tbaa !24
  store i32 4, ptr %19, align 4
  br label %174

173:                                              ; preds = %126
  store i32 0, ptr %19, align 4
  br label %174

174:                                              ; preds = %172, %80, %173
  call void @llvm.lifetime.end.p0(i64 4, ptr %16) #6
  call void @llvm.lifetime.end.p0(i64 4, ptr %15) #6
  call void @llvm.lifetime.end.p0(i64 8, ptr %14) #6
  call void @llvm.lifetime.end.p0(i64 4, ptr %13) #6
  call void @llvm.lifetime.end.p0(i64 8, ptr %12) #6
  %175 = load i32, ptr %19, align 4
  switch i32 %175, label %228 [
    i32 0, label %176
    i32 4, label %226
  ]

176:                                              ; preds = %174
  br label %222

177:                                              ; preds = %41
  %178 = load ptr, ptr %5, align 8, !tbaa !34
  %179 = call ptr @av_frame_new_side_data(ptr noundef %178, i32 noundef 18, i64 noundef 28)
  store ptr %179, ptr %10, align 8, !tbaa !47
  %180 = load ptr, ptr %10, align 8, !tbaa !47
  %181 = icmp ne ptr %180, null
  br i1 %181, label %183, label %182

182:                                              ; preds = %177
  store i32 -12, ptr %11, align 4, !tbaa !24
  br label %226

183:                                              ; preds = %177
  %184 = load ptr, ptr %10, align 8, !tbaa !47
  %185 = getelementptr inbounds nuw %struct.AVFrameSideData, ptr %184, i32 0, i32 1
  %186 = load ptr, ptr %185, align 8, !tbaa !49
  store ptr %186, ptr %9, align 8, !tbaa !53
  %187 = load ptr, ptr %9, align 8, !tbaa !53
  %188 = getelementptr inbounds nuw %struct.AVRegionOfInterest, ptr %20, i32 0, i32 0
  store i32 28, ptr %188, align 4, !tbaa !55
  %189 = getelementptr inbounds nuw %struct.AVRegionOfInterest, ptr %20, i32 0, i32 1
  %190 = load ptr, ptr %8, align 8, !tbaa !22
  %191 = getelementptr inbounds nuw %struct.AddROIContext, ptr %190, i32 0, i32 3
  %192 = getelementptr inbounds [4 x i32], ptr %191, i64 0, i64 1
  %193 = load i32, ptr %192, align 4, !tbaa !24
  store i32 %193, ptr %189, align 4, !tbaa !62
  %194 = getelementptr inbounds nuw %struct.AVRegionOfInterest, ptr %20, i32 0, i32 2
  %195 = load ptr, ptr %8, align 8, !tbaa !22
  %196 = getelementptr inbounds nuw %struct.AddROIContext, ptr %195, i32 0, i32 3
  %197 = getelementptr inbounds [4 x i32], ptr %196, i64 0, i64 1
  %198 = load i32, ptr %197, align 4, !tbaa !24
  %199 = load ptr, ptr %8, align 8, !tbaa !22
  %200 = getelementptr inbounds nuw %struct.AddROIContext, ptr %199, i32 0, i32 3
  %201 = getelementptr inbounds [4 x i32], ptr %200, i64 0, i64 3
  %202 = load i32, ptr %201, align 4, !tbaa !24
  %203 = add nsw i32 %198, %202
  store i32 %203, ptr %194, align 4, !tbaa !63
  %204 = getelementptr inbounds nuw %struct.AVRegionOfInterest, ptr %20, i32 0, i32 3
  %205 = load ptr, ptr %8, align 8, !tbaa !22
  %206 = getelementptr inbounds nuw %struct.AddROIContext, ptr %205, i32 0, i32 3
  %207 = getelementptr inbounds [4 x i32], ptr %206, i64 0, i64 0
  %208 = load i32, ptr %207, align 8, !tbaa !24
  store i32 %208, ptr %204, align 4, !tbaa !64
  %209 = getelementptr inbounds nuw %struct.AVRegionOfInterest, ptr %20, i32 0, i32 4
  %210 = load ptr, ptr %8, align 8, !tbaa !22
  %211 = getelementptr inbounds nuw %struct.AddROIContext, ptr %210, i32 0, i32 3
  %212 = getelementptr inbounds [4 x i32], ptr %211, i64 0, i64 0
  %213 = load i32, ptr %212, align 8, !tbaa !24
  %214 = load ptr, ptr %8, align 8, !tbaa !22
  %215 = getelementptr inbounds nuw %struct.AddROIContext, ptr %214, i32 0, i32 3
  %216 = getelementptr inbounds [4 x i32], ptr %215, i64 0, i64 2
  %217 = load i32, ptr %216, align 8, !tbaa !24
  %218 = add nsw i32 %213, %217
  store i32 %218, ptr %209, align 4, !tbaa !65
  %219 = getelementptr inbounds nuw %struct.AVRegionOfInterest, ptr %20, i32 0, i32 5
  %220 = load ptr, ptr %8, align 8, !tbaa !22
  %221 = getelementptr inbounds nuw %struct.AddROIContext, ptr %220, i32 0, i32 4
  call void @llvm.memcpy.p0.p0.i64(ptr align 4 %219, ptr align 8 %221, i64 8, i1 false), !tbaa.struct !66
  call void @llvm.memcpy.p0.p0.i64(ptr align 4 %187, ptr align 4 %20, i64 28, i1 false), !tbaa.struct !67
  br label %222

222:                                              ; preds = %183, %176
  %223 = load ptr, ptr %7, align 8, !tbaa !32
  %224 = load ptr, ptr %5, align 8, !tbaa !34
  %225 = call i32 @ff_filter_frame(ptr noundef %223, ptr noundef %224)
  store i32 %225, ptr %3, align 4
  store i32 1, ptr %19, align 4
  br label %228

226:                                              ; preds = %174, %182
  call void @av_frame_free(ptr noundef %5)
  %227 = load i32, ptr %11, align 4, !tbaa !24
  store i32 %227, ptr %3, align 4
  store i32 1, ptr %19, align 4
  br label %228

228:                                              ; preds = %226, %222, %174
  call void @llvm.lifetime.end.p0(i64 4, ptr %11) #6
  call void @llvm.lifetime.end.p0(i64 8, ptr %10) #6
  call void @llvm.lifetime.end.p0(i64 8, ptr %9) #6
  call void @llvm.lifetime.end.p0(i64 8, ptr %8) #6
  call void @llvm.lifetime.end.p0(i64 8, ptr %7) #6
  call void @llvm.lifetime.end.p0(i64 8, ptr %6) #6
  %229 = load i32, ptr %3, align 4
  ret i32 %229
}