; Function Attrs: nounwind uwtable
define internal i32 @addroi_filter_frame(ptr noundef readonly captures(none) %0, ptr noundef %1) #1 {
  %3 = alloca ptr, align 8
  %4 = alloca ptr, align 8
  store ptr %1, ptr %3, align 8, !tbaa !27
  %5 = getelementptr inbounds nuw i8, ptr %0, i64 16
  %6 = load ptr, ptr %5, align 8, !tbaa !29
  %7 = getelementptr inbounds nuw i8, ptr %6, i64 56
  %8 = load ptr, ptr %7, align 8, !tbaa !38
  %9 = load ptr, ptr %8, align 8, !tbaa !39
  %10 = getelementptr inbounds nuw i8, ptr %6, i64 72
  %11 = load ptr, ptr %10, align 8, !tbaa !4
  %12 = getelementptr inbounds nuw i8, ptr %11, i64 96
  %13 = load i32, ptr %12, align 8, !tbaa !41
  %.not = icmp eq i32 %13, 0
  br i1 %.not, label %14, label %.thread

.thread:                                          ; preds = %2
  tail call void @av_frame_remove_side_data(ptr noundef %1, i32 noundef 18) #5
  br label %73

14:                                               ; preds = %2
  %15 = tail call ptr @av_frame_get_side_data(ptr noundef %1, i32 noundef 18) #5
  %.not69 = icmp eq ptr %15, null
  br i1 %.not69, label %73, label %16

16:                                               ; preds = %14
  call void @llvm.lifetime.start.p0(i64 8, ptr nonnull %4) #5
  %17 = getelementptr inbounds nuw i8, ptr %15, i64 8
  %18 = load ptr, ptr %17, align 8, !tbaa !43
  %19 = load i32, ptr %18, align 4, !tbaa !47
  %.not71 = icmp eq i32 %19, 0
  br i1 %.not71, label %27, label %20

20:                                               ; preds = %16
  %21 = getelementptr inbounds nuw i8, ptr %15, i64 16
  %22 = load i64, ptr %21, align 8, !tbaa !49
  %23 = zext i32 %19 to i64
  %24 = urem i64 %22, %23
  %25 = udiv i64 %22, %23
  %26 = icmp eq i64 %24, 0
  br i1 %26, label %28, label %27

27:                                               ; preds = %20, %16
  tail call void (ptr, i32, ptr, ...) @av_log(ptr noundef null, i32 noundef 0, ptr noundef nonnull @.str.3, ptr noundef nonnull @.str.4, ptr noundef nonnull @.str.5, i32 noundef 119) #5
  tail call void @abort() #6
  unreachable

28:                                               ; preds = %20
  %29 = shl i64 %25, 32
  %sext = add i64 %29, 4294967296
  %30 = ashr exact i64 %sext, 32
  %31 = mul nsw i64 %30, 28
  %32 = tail call ptr @av_buffer_alloc(i64 noundef %31) #5
  store ptr %32, ptr %4, align 8, !tbaa !50
  %.not72 = icmp eq ptr %32, null
  br i1 %.not72, label %.thread78, label %33

33:                                               ; preds = %28
  %34 = trunc i64 %25 to i32
  %35 = getelementptr inbounds nuw i8, ptr %32, i64 8
  %36 = load ptr, ptr %35, align 8, !tbaa !51
  %37 = icmp sgt i32 %34, 0
  br i1 %37, label %.lr.ph.preheader, label %._crit_edge

.lr.ph.preheader:                                 ; preds = %33
  %38 = and i64 %25, 2147483647
  br label %.lr.ph

.lr.ph:                                           ; preds = %.lr.ph.preheader, %.lr.ph
  %indvars.iv = phi i64 [ 0, %.lr.ph.preheader ], [ %indvars.iv.next, %.lr.ph ]
  %39 = load ptr, ptr %17, align 8, !tbaa !43
  %40 = trunc nuw nsw i64 %indvars.iv to i32
  %41 = mul i32 %19, %40
  %42 = zext i32 %41 to i64
  %43 = getelementptr inbounds nuw i8, ptr %39, i64 %42
  %44 = getelementptr inbounds nuw %struct.AVRegionOfInterest, ptr %36, i64 %indvars.iv
  %45 = getelementptr inbounds nuw i8, ptr %43, i64 4
  %46 = load i32, ptr %45, align 4, !tbaa !54
  %47 = getelementptr inbounds nuw i8, ptr %43, i64 8
  %48 = load i32, ptr %47, align 4, !tbaa !55
  %49 = getelementptr inbounds nuw i8, ptr %43, i64 12
  %50 = load i32, ptr %49, align 4, !tbaa !56
  %51 = getelementptr inbounds nuw i8, ptr %43, i64 16
  %52 = load i32, ptr %51, align 4, !tbaa !57
  %53 = getelementptr inbounds nuw i8, ptr %43, i64 20
  %54 = load i64, ptr %53, align 4
  store i32 28, ptr %44, align 4, !tbaa !58
  %.sroa.28.0..sroa_idx = getelementptr inbounds nuw i8, ptr %44, i64 4
  store i32 %46, ptr %.sroa.28.0..sroa_idx, align 4, !tbaa !58
  %.sroa.39.0..sroa_idx = getelementptr inbounds nuw i8, ptr %44, i64 8
  store i32 %48, ptr %.sroa.39.0..sroa_idx, align 4, !tbaa !58
  %.sroa.410.0..sroa_idx = getelementptr inbounds nuw i8, ptr %44, i64 12
  store i32 %50, ptr %.sroa.410.0..sroa_idx, align 4, !tbaa !58
  %.sroa.511.0..sroa_idx = getelementptr inbounds nuw i8, ptr %44, i64 16
  store i32 %52, ptr %.sroa.511.0..sroa_idx, align 4, !tbaa !58
  %.sroa.612.0..sroa_idx = getelementptr inbounds nuw i8, ptr %44, i64 20
  store i64 %54, ptr %.sroa.612.0..sroa_idx, align 4
  %indvars.iv.next = add nuw nsw i64 %indvars.iv, 1
  %55 = icmp samesign ult i64 %indvars.iv.next, %38
  br i1 %55, label %.lr.ph, label %._crit_edge, !llvm.loop !59

._crit_edge:                                      ; preds = %.lr.ph, %33
  %56 = ashr exact i64 %29, 32
  %57 = getelementptr inbounds %struct.AVRegionOfInterest, ptr %36, i64 %56
  %58 = getelementptr inbounds nuw i8, ptr %11, i64 72
  %59 = getelementptr inbounds nuw i8, ptr %11, i64 76
  %60 = load i32, ptr %59, align 4, !tbaa !58
  %61 = getelementptr inbounds nuw i8, ptr %11, i64 84
  %62 = load i32, ptr %61, align 4, !tbaa !58
  %63 = add nsw i32 %62, %60
  %64 = load i32, ptr %58, align 8, !tbaa !58
  %65 = getelementptr inbounds nuw i8, ptr %11, i64 80
  %66 = load i32, ptr %65, align 8, !tbaa !58
  %67 = add nsw i32 %66, %64
  %68 = getelementptr inbounds nuw i8, ptr %11, i64 88
  %69 = load i64, ptr %68, align 8
  store i32 28, ptr %57, align 4, !tbaa !58
  %.sroa.22.0..sroa_idx = getelementptr inbounds nuw i8, ptr %57, i64 4
  store i32 %60, ptr %.sroa.22.0..sroa_idx, align 4, !tbaa !58
  %.sroa.33.0..sroa_idx = getelementptr inbounds nuw i8, ptr %57, i64 8
  store i32 %63, ptr %.sroa.33.0..sroa_idx, align 4, !tbaa !58
  %.sroa.44.0..sroa_idx = getelementptr inbounds nuw i8, ptr %57, i64 12
  store i32 %64, ptr %.sroa.44.0..sroa_idx, align 4, !tbaa !58
  %.sroa.55.0..sroa_idx = getelementptr inbounds nuw i8, ptr %57, i64 16
  store i32 %67, ptr %.sroa.55.0..sroa_idx, align 4, !tbaa !58
  %.sroa.66.0..sroa_idx = getelementptr inbounds nuw i8, ptr %57, i64 20
  store i64 %69, ptr %.sroa.66.0..sroa_idx, align 4
  tail call void @av_frame_remove_side_data(ptr noundef %1, i32 noundef 18) #5
  %70 = tail call ptr @av_frame_new_side_data_from_buf(ptr noundef %1, i32 noundef 18, ptr noundef nonnull %32) #5
  %.not74 = icmp eq ptr %70, null
  br i1 %.not74, label %71, label %72

71:                                               ; preds = %._crit_edge
  call void @av_buffer_unref(ptr noundef nonnull %4) #5
  br label %.thread78

.thread78:                                        ; preds = %71, %28
  call void @llvm.lifetime.end.p0(i64 8, ptr nonnull %4) #5
  br label %92

72:                                               ; preds = %._crit_edge
  call void @llvm.lifetime.end.p0(i64 8, ptr nonnull %4) #5
  br label %90

73:                                               ; preds = %.thread, %14
  %74 = tail call ptr @av_frame_new_side_data(ptr noundef %1, i32 noundef 18, i64 noundef 28) #5
  %.not70 = icmp eq ptr %74, null
  br i1 %.not70, label %92, label %75

75:                                               ; preds = %73
  %76 = getelementptr inbounds nuw i8, ptr %74, i64 8
  %77 = load ptr, ptr %76, align 8, !tbaa !43
  %78 = getelementptr inbounds nuw i8, ptr %11, i64 72
  %79 = getelementptr inbounds nuw i8, ptr %11, i64 76
  %80 = load i32, ptr %79, align 4, !tbaa !58
  %81 = getelementptr inbounds nuw i8, ptr %11, i64 84
  %82 = load i32, ptr %81, align 4, !tbaa !58
  %83 = add nsw i32 %82, %80
  %84 = load i32, ptr %78, align 8, !tbaa !58
  %85 = getelementptr inbounds nuw i8, ptr %11, i64 80
  %86 = load i32, ptr %85, align 8, !tbaa !58
  %87 = add nsw i32 %86, %84
  %88 = getelementptr inbounds nuw i8, ptr %11, i64 88
  %89 = load i64, ptr %88, align 8
  store i32 28, ptr %77, align 4, !tbaa !58
  %.sroa.2.0..sroa_idx = getelementptr inbounds nuw i8, ptr %77, i64 4
  store i32 %80, ptr %.sroa.2.0..sroa_idx, align 4, !tbaa !58
  %.sroa.3.0..sroa_idx = getelementptr inbounds nuw i8, ptr %77, i64 8
  store i32 %83, ptr %.sroa.3.0..sroa_idx, align 4, !tbaa !58
  %.sroa.4.0..sroa_idx = getelementptr inbounds nuw i8, ptr %77, i64 12
  store i32 %84, ptr %.sroa.4.0..sroa_idx, align 4, !tbaa !58
  %.sroa.5.0..sroa_idx = getelementptr inbounds nuw i8, ptr %77, i64 16
  store i32 %87, ptr %.sroa.5.0..sroa_idx, align 4, !tbaa !58
  %.sroa.6.0..sroa_idx = getelementptr inbounds nuw i8, ptr %77, i64 20
  store i64 %89, ptr %.sroa.6.0..sroa_idx, align 4
  br label %90

90:                                               ; preds = %72, %75
  %91 = tail call i32 @ff_filter_frame(ptr noundef %9, ptr noundef %1) #5
  br label %93

92:                                               ; preds = %.thread78, %73
  call void @av_frame_free(ptr noundef nonnull %3) #5
  br label %93

93:                                               ; preds = %92, %90
  %.0 = phi i32 [ -12, %92 ], [ %91, %90 ]
  ret i32 %.0
}